(dp0
S'1004'
p1
(lp2
S'Xeon lights'
p3
aS'Cobb'
p4
aS'42LBTUSV47'
p5
aS'$200'
p6
aS'$25'
p7
asS'1003'
p8
(lp9
S'Twin Turbos'
p10
aS'Mitsubishi'
p11
aS'JYRTK335IT0'
p12
aS'$4000'
p13
aS'$1100'
p14
asS'1002'
p15
(lp16
S'TIRES'
p17
aS'BMW'
p18
aS'34BMW23O'
p19
aS'$45'
p20
aS'$4'
p21
asS'1001'
p22
(lp23
S'Struts'
p24
aS'Bilstein'
p25
aS'J40K9453'
p26
aS'$2000'
p27
aS'$450'
p28
as.